target datalayout = "e-m:e-p270:32:32-p271:32:32-p272:64:64-i64:64-i128:128-f80:128-n8:16:32:64-S128"
target triple = "x86_64-pc-linux-gnu"

%struct.quic_demux_st = type { ptr, i64, i64, i64, ptr, ptr, ptr, ptr, %struct.ossl_list_st_urxe, %struct.ossl_list_st_urxe, i8 }
%struct.ossl_list_st_urxe = type { ptr, ptr, i64 }
%struct.quic_urxe_st = type { %struct.anon, i64, i64, i64, i64, i64, %union.bio_addr_st, %union.bio_addr_st, %struct.OSSL_TIME, i8, i8 }
%struct.anon = type { ptr, ptr }
%union.bio_addr_st = type { %struct.sockaddr_in6, [84 x i8] }
%struct.sockaddr_in6 = type { i16, i16, i32, %struct.in6_addr, i32 }
%struct.in6_addr = type { %union.anon }
%union.anon = type { [4 x i32] }
%struct.OSSL_TIME = type { i64 }

@.str = private unnamed_addr constant [33 x i8] c"../openssl/ssl/quic/quic_demux.c\00", align 1

; Function Attrs: inlinehint nounwind uwtable
define internal void @ossl_list_urxe_remove(ptr noundef %0, ptr noundef %1) #3 {
  %3 = alloca ptr, align 8
  %4 = alloca ptr, align 8
  store ptr %0, ptr %3, align 8, !tbaa !22
  store ptr %1, ptr %4, align 8, !tbaa !24
  %5 = load ptr, ptr %3, align 8, !tbaa !22
  %6 = getelementptr inbounds nuw %struct.ossl_list_st_urxe, ptr %5, i32 0, i32 0
  %7 = load ptr, ptr %6, align 8, !tbaa !31
  %8 = load ptr, ptr %4, align 8, !tbaa !24
  %9 = icmp eq ptr %7, %8
  br i1 %9, label %10, label %17

10:                                               ; preds = %2
  %11 = load ptr, ptr %4, align 8, !tbaa !24
  %12 = getelementptr inbounds nuw %struct.quic_urxe_st, ptr %11, i32 0, i32 0
  %13 = getelementptr inbounds nuw %struct.anon, ptr %12, i32 0, i32 0
  %14 = load ptr, ptr %13, align 8, !tbaa !56
  %15 = load ptr, ptr %3, align 8, !tbaa !22
  %16 = getelementptr inbounds nuw %struct.ossl_list_st_urxe, ptr %15, i32 0, i32 0
  store ptr %14, ptr %16, align 8, !tbaa !31
  br label %17

17:                                               ; preds = %10, %2
  %18 = load ptr, ptr %3, align 8, !tbaa !22
  %19 = getelementptr inbounds nuw %struct.ossl_list_st_urxe, ptr %18, i32 0, i32 1
  %20 = load ptr, ptr %19, align 8, !tbaa !57
  %21 = load ptr, ptr %4, align 8, !tbaa !24
  %22 = icmp eq ptr %20, %21
  br i1 %22, label %23, label %30

23:                                               ; preds = %17
  %24 = load ptr, ptr %4, align 8, !tbaa !24
  %25 = getelementptr inbounds nuw %struct.quic_urxe_st, ptr %24, i32 0, i32 0
  %26 = getelementptr inbounds nuw %struct.anon, ptr %25, i32 0, i32 1
  %27 = load ptr, ptr %26, align 8, !tbaa !58
  %28 = load ptr, ptr %3, align 8, !tbaa !22
  %29 = getelementptr inbounds nuw %struct.ossl_list_st_urxe, ptr %28, i32 0, i32 1
  store ptr %27, ptr %29, align 8, !tbaa !57
  br label %30

30:                                               ; preds = %23, %17
  %31 = load ptr, ptr %4, align 8, !tbaa !24
  %32 = getelementptr inbounds nuw %struct.quic_urxe_st, ptr %31, i32 0, i32 0
  %33 = getelementptr inbounds nuw %struct.anon, ptr %32, i32 0, i32 1
  %34 = load ptr, ptr %33, align 8, !tbaa !58
  %35 = icmp ne ptr %34, null
  br i1 %35, label %36, label %47

36:                                               ; preds = %30
  %37 = load ptr, ptr %4, align 8, !tbaa !24
  %38 = getelementptr inbounds nuw %struct.quic_urxe_st, ptr %37, i32 0, i32 0
  %39 = getelementptr inbounds nuw %struct.anon, ptr %38, i32 0, i32 0
  %40 = load ptr, ptr %39, align 8, !tbaa !56
  %41 = load ptr, ptr %4, align 8, !tbaa !24
  %42 = getelementptr inbounds nuw %struct.quic_urxe_st, ptr %41, i32 0, i32 0
  %43 = getelementptr inbounds nuw %struct.anon, ptr %42, i32 0, i32 1
  %44 = load ptr, ptr %43, align 8, !tbaa !58
  %45 = getelementptr inbounds nuw %struct.quic_urxe_st, ptr %44, i32 0, i32 0
  %46 = getelementptr inbounds nuw %struct.anon, ptr %45, i32 0, i32 0
  store ptr %40, ptr %46, align 8, !tbaa !56
  br label %47

47:                                               ; preds = %36, %30
  %48 = load ptr, ptr %4, align 8, !tbaa !24
  %49 = getelementptr inbounds nuw %struct.quic_urxe_st, ptr %48, i32 0, i32 0
  %50 = getelementptr inbounds nuw %struct.anon, ptr %49, i32 0, i32 0
  %51 = load ptr, ptr %50, align 8, !tbaa !56
  %52 = icmp ne ptr %51, null
  br i1 %52, label %53, label %64

53:                                               ; preds = %47
  %54 = load ptr, ptr %4, align 8, !tbaa !24
  %55 = getelementptr inbounds nuw %struct.quic_urxe_st, ptr %54, i32 0, i32 0
  %56 = getelementptr inbounds nuw %struct.anon, ptr %55, i32 0, i32 1
  %57 = load ptr, ptr %56, align 8, !tbaa !58
  %58 = load ptr, ptr %4, align 8, !tbaa !24
  %59 = getelementptr inbounds nuw %struct.quic_urxe_st, ptr %58, i32 0, i32 0
  %60 = getelementptr inbounds nuw %struct.anon, ptr %59, i32 0, i32 0
  %61 = load ptr, ptr %60, align 8, !tbaa !56
  %62 = getelementptr inbounds nuw %struct.quic_urxe_st, ptr %61, i32 0, i32 0
  %63 = getelementptr inbounds nuw %struct.anon, ptr %62, i32 0, i32 1
  store ptr %57, ptr %63, align 8, !tbaa !58
  br label %64

64:                                               ; preds = %53, %47
  %65 = load ptr, ptr %3, align 8, !tbaa !22
  %66 = getelementptr inbounds nuw %struct.ossl_list_st_urxe, ptr %65, i32 0, i32 2
  %67 = load i64, ptr %66, align 8, !tbaa !59
  %68 = add i64 %67, -1
  store i64 %68, ptr %66, align 8, !tbaa !59
  %69 = load ptr, ptr %4, align 8, !tbaa !24
  %70 = getelementptr inbounds nuw %struct.quic_urxe_st, ptr %69, i32 0, i32 0
  call void @llvm.memset.p0.i64(ptr align 8 %70, i8 0, i64 16, i1 false)
  ret void
}

; Function Attrs: inlinehint nounwind uwtable
define internal ptr @ossl_list_urxe_next(ptr noundef %0) #3 {
  %2 = alloca ptr, align 8
  store ptr %0, ptr %2, align 8, !tbaa !24
  %3 = load ptr, ptr %2, align 8, !tbaa !24
  %4 = getelementptr inbounds nuw %struct.quic_urxe_st, ptr %3, i32 0, i32 0
  %5 = getelementptr inbounds nuw %struct.anon, ptr %4, i32 0, i32 0
  %6 = load ptr, ptr %5, align 8, !tbaa !56
  ret ptr %6
}

; Function Attrs: inlinehint nounwind uwtable
define internal ptr @ossl_list_urxe_head(ptr noundef %0) #3 {
  %2 = alloca ptr, align 8
  store ptr %0, ptr %2, align 8, !tbaa !22
  %3 = load ptr, ptr %2, align 8, !tbaa !22
  %4 = getelementptr inbounds nuw %struct.ossl_list_st_urxe, ptr %3, i32 0, i32 0
  %5 = load ptr, ptr %4, align 8, !tbaa !31
  ret ptr %5
}

; Function Attrs: nounwind uwtable
define internal void @demux_free_urxl(ptr noundef %0) #0 {
  %2 = alloca ptr, align 8
  %3 = alloca ptr, align 8
  %4 = alloca ptr, align 8
  store ptr %0, ptr %2, align 8, !tbaa !22
  call void @llvm.lifetime.start.p0(i64 8, ptr %3) #7
  call void @llvm.lifetime.start.p0(i64 8, ptr %4) #7
  %5 = load ptr, ptr %2, align 8, !tbaa !22
  %6 = call ptr @ossl_list_urxe_head(ptr noundef %5)
  store ptr %6, ptr %3, align 8, !tbaa !24
  br label %7

7:                                                ; preds = %16, %1
  %8 = load ptr, ptr %3, align 8, !tbaa !24
  %9 = icmp ne ptr %8, null
  br i1 %9, label %10, label %18

10:                                               ; preds = %7
  %11 = load ptr, ptr %3, align 8, !tbaa !24
  %12 = call ptr @ossl_list_urxe_next(ptr noundef %11)
  store ptr %12, ptr %4, align 8, !tbaa !24
  %13 = load ptr, ptr %2, align 8, !tbaa !22
  %14 = load ptr, ptr %3, align 8, !tbaa !24
  call void @ossl_list_urxe_remove(ptr noundef %13, ptr noundef %14)
  %15 = load ptr, ptr %3, align 8, !tbaa !24
  call void @CRYPTO_free(ptr noundef %15, ptr noundef @.str, i32 noundef 104)
  br label %16

16:                                               ; preds = %10
  %17 = load ptr, ptr %4, align 8, !tbaa !24
  store ptr %17, ptr %3, align 8, !tbaa !24
  br label %7, !llvm.loop !25

18:                                               ; preds = %7
  call void @llvm.lifetime.end.p0(i64 8, ptr %4) #7
  call void @llvm.lifetime.end.p0(i64 8, ptr %3) #7
  ret void
}

; Function Attrs: nounwind uwtable
define void @ossl_quic_demux_free(ptr noundef %0) #0 {
  %2 = alloca ptr, align 8
  store ptr %0, ptr %2, align 8, !tbaa !11
  %3 = load ptr, ptr %2, align 8, !tbaa !11
  %4 = icmp eq ptr %3, null
  br i1 %4, label %5, label %6

5:                                                ; preds = %1
  br label %12

6:                                                ; preds = %1
  %7 = load ptr, ptr %2, align 8, !tbaa !11
  %8 = getelementptr inbounds nuw %struct.quic_demux_st, ptr %7, i32 0, i32 8
  call void @demux_free_urxl(ptr noundef %8)
  %9 = load ptr, ptr %2, align 8, !tbaa !11
  %10 = getelementptr inbounds nuw %struct.quic_demux_st, ptr %9, i32 0, i32 9
  call void @demux_free_urxl(ptr noundef %10)
  %11 = load ptr, ptr %2, align 8, !tbaa !11
  call void @CRYPTO_free(ptr noundef %11, ptr noundef @.str, i32 noundef 117)
  br label %12

12:                                               ; preds = %6, %5
  ret void
}