; Function Attrs: nounwind uwtable
define void @ossl_quic_demux_free(ptr noundef %0) local_unnamed_addr #0 {
  %2 = icmp eq ptr %0, null
  br i1 %2, label %44, label %3

3:                                                ; preds = %1
  %4 = getelementptr inbounds nuw i8, ptr %0, i64 64
  %.val.i = load ptr, ptr %4, align 8, !tbaa !17
  %.not7.i = icmp eq ptr %.val.i, null
  br i1 %.not7.i, label %demux_free_urxl.exit, label %.lr.ph.i

.lr.ph.i:                                         ; preds = %3
  %5 = getelementptr inbounds nuw i8, ptr %0, i64 72
  %6 = getelementptr inbounds nuw i8, ptr %0, i64 80
  br label %7

7:                                                ; preds = %ossl_list_urxe_remove.exit.i, %.lr.ph.i
  %8 = phi ptr [ %.val.i, %.lr.ph.i ], [ %.pre, %ossl_list_urxe_remove.exit.i ]
  %.08.i = phi ptr [ %.val.i, %.lr.ph.i ], [ %.0.val.i, %ossl_list_urxe_remove.exit.i ]
  %.0.val.i = load ptr, ptr %.08.i, align 8, !tbaa !18
  %9 = icmp eq ptr %8, %.08.i
  br i1 %9, label %10, label %11

10:                                               ; preds = %7
  store ptr %.0.val.i, ptr %4, align 8, !tbaa !17
  br label %11

11:                                               ; preds = %10, %7
  %12 = load ptr, ptr %5, align 8, !tbaa !22
  %13 = icmp eq ptr %12, %.08.i
  %14 = getelementptr inbounds nuw i8, ptr %.08.i, i64 8
  %15 = load ptr, ptr %14, align 8, !tbaa !23
  br i1 %13, label %16, label %._crit_edge.i.i

16:                                               ; preds = %11
  store ptr %15, ptr %5, align 8, !tbaa !22
  br label %._crit_edge.i.i

._crit_edge.i.i:                                  ; preds = %16, %11
  %.not.i.i = icmp eq ptr %15, null
  br i1 %.not.i.i, label %18, label %17

17:                                               ; preds = %._crit_edge.i.i
  store ptr %.0.val.i, ptr %15, align 8, !tbaa !18
  br label %18

18:                                               ; preds = %17, %._crit_edge.i.i
  %.not18.i.i = icmp eq ptr %.0.val.i, null
  br i1 %.not18.i.i, label %._crit_edge.loopexit.critedge.i, label %ossl_list_urxe_remove.exit.i

ossl_list_urxe_remove.exit.i:                     ; preds = %18
  %19 = getelementptr inbounds nuw i8, ptr %.0.val.i, i64 8
  store ptr %15, ptr %19, align 8, !tbaa !23
  %20 = load i64, ptr %6, align 8, !tbaa !24
  %21 = add i64 %20, -1
  store i64 %21, ptr %6, align 8, !tbaa !24
  tail call void @llvm.memset.p0.i64(ptr noundef nonnull align 8 dereferenceable(16) %.08.i, i8 0, i64 16, i1 false)
  tail call void @CRYPTO_free(ptr noundef nonnull %.08.i, ptr noundef nonnull @.str, i32 noundef 104) #8
  %.pre = load ptr, ptr %4, align 8, !tbaa !17
  br label %7, !llvm.loop !25

._crit_edge.loopexit.critedge.i:                  ; preds = %18
  %22 = load i64, ptr %6, align 8, !tbaa !24
  %23 = add i64 %22, -1
  store i64 %23, ptr %6, align 8, !tbaa !24
  tail call void @llvm.memset.p0.i64(ptr noundef nonnull align 8 dereferenceable(16) %.08.i, i8 0, i64 16, i1 false)
  tail call void @CRYPTO_free(ptr noundef nonnull %.08.i, ptr noundef nonnull @.str, i32 noundef 104) #8
  br label %demux_free_urxl.exit

demux_free_urxl.exit:                             ; preds = %3, %._crit_edge.loopexit.critedge.i
  %24 = getelementptr inbounds nuw i8, ptr %0, i64 88
  %.val.i4 = load ptr, ptr %24, align 8, !tbaa !17
  %.not7.i5 = icmp eq ptr %.val.i4, null
  br i1 %.not7.i5, label %demux_free_urxl.exit14, label %.lr.ph.i6

.lr.ph.i6:                                        ; preds = %demux_free_urxl.exit
  %25 = getelementptr inbounds nuw i8, ptr %0, i64 96
  %26 = getelementptr inbounds nuw i8, ptr %0, i64 104
  br label %27

27:                                               ; preds = %ossl_list_urxe_remove.exit.i12, %.lr.ph.i6
  %28 = phi ptr [ %.val.i4, %.lr.ph.i6 ], [ %.pre15, %ossl_list_urxe_remove.exit.i12 ]
  %.08.i7 = phi ptr [ %.val.i4, %.lr.ph.i6 ], [ %.0.val.i8, %ossl_list_urxe_remove.exit.i12 ]
  %.0.val.i8 = load ptr, ptr %.08.i7, align 8, !tbaa !18
  %29 = icmp eq ptr %28, %.08.i7
  br i1 %29, label %30, label %31

30:                                               ; preds = %27
  store ptr %.0.val.i8, ptr %24, align 8, !tbaa !17
  br label %31

31:                                               ; preds = %30, %27
  %32 = load ptr, ptr %25, align 8, !tbaa !22
  %33 = icmp eq ptr %32, %.08.i7
  %34 = getelementptr inbounds nuw i8, ptr %.08.i7, i64 8
  %35 = load ptr, ptr %34, align 8, !tbaa !23
  br i1 %33, label %36, label %._crit_edge.i.i9

36:                                               ; preds = %31
  store ptr %35, ptr %25, align 8, !tbaa !22
  br label %._crit_edge.i.i9

._crit_edge.i.i9:                                 ; preds = %36, %31
  %.not.i.i10 = icmp eq ptr %35, null
  br i1 %.not.i.i10, label %38, label %37

37:                                               ; preds = %._crit_edge.i.i9
  store ptr %.0.val.i8, ptr %35, align 8, !tbaa !18
  br label %38

38:                                               ; preds = %37, %._crit_edge.i.i9
  %.not18.i.i11 = icmp eq ptr %.0.val.i8, null
  br i1 %.not18.i.i11, label %._crit_edge.loopexit.critedge.i13, label %ossl_list_urxe_remove.exit.i12

ossl_list_urxe_remove.exit.i12:                   ; preds = %38
  %39 = getelementptr inbounds nuw i8, ptr %.0.val.i8, i64 8
  store ptr %35, ptr %39, align 8, !tbaa !23
  %40 = load i64, ptr %26, align 8, !tbaa !24
  %41 = add i64 %40, -1
  store i64 %41, ptr %26, align 8, !tbaa !24
  tail call void @llvm.memset.p0.i64(ptr noundef nonnull align 8 dereferenceable(16) %.08.i7, i8 0, i64 16, i1 false)
  tail call void @CRYPTO_free(ptr noundef nonnull %.08.i7, ptr noundef nonnull @.str, i32 noundef 104) #8
  %.pre15 = load ptr, ptr %24, align 8, !tbaa !17
  br label %27, !llvm.loop !25

._crit_edge.loopexit.critedge.i13:                ; preds = %38
  %42 = load i64, ptr %26, align 8, !tbaa !24
  %43 = add i64 %42, -1
  store i64 %43, ptr %26, align 8, !tbaa !24
  tail call void @llvm.memset.p0.i64(ptr noundef nonnull align 8 dereferenceable(16) %.08.i7, i8 0, i64 16, i1 false)
  tail call void @CRYPTO_free(ptr noundef nonnull %.08.i7, ptr noundef nonnull @.str, i32 noundef 104) #8
  br label %demux_free_urxl.exit14

demux_free_urxl.exit14:                           ; preds = %demux_free_urxl.exit, %._crit_edge.loopexit.critedge.i13
  tail call void @CRYPTO_free(ptr noundef nonnull %0, ptr noundef nonnull @.str, i32 noundef 117) #8
  br label %44

44:                                               ; preds = %1, %demux_free_urxl.exit14
  ret void
}